; Function Attrs: mustprogress uwtable
define void @_ZN4YAML6ParserC2ERSi(ptr nocapture noundef nonnull align 8 dereferenceable(16) %this, ptr noundef nonnull align 8 dereferenceable(16) %in) unnamed_addr #5 align 2 personality ptr @__gxx_personality_v0 {
entry:
  tail call void @llvm.memset.p0.i64(ptr noundef nonnull align 8 dereferenceable(16) %this, i8 0, i64 16, i1 false)
  invoke void @_ZN4YAML6Parser4LoadERSi(ptr noundef nonnull align 8 dereferenceable(16) %this, ptr noundef nonnull align 8 dereferenceable(16) %in)
          to label %invoke.cont unwind label %lpad

invoke.cont:                                      ; preds = %entry
  ret void

lpad:                                             ; preds = %entry
  %0 = landingpad { ptr, i32 }
          cleanup
  tail call void @_ZN4YAML6ParserD2Ev(ptr noundef nonnull align 8 dereferenceable(16) %this) #15
  resume { ptr, i32 } %0
}